target datalayout = "e-m:e-p270:32:32-p271:32:32-p272:64:64-i64:64-i128:128-f80:128-n8:16:32:64-S128"
target triple = "x86_64-pc-linux-gnu"

%struct.H5HF_indirect_t = type { %struct.H5C_cache_entry_t, i64, ptr, ptr, ptr, i32, i64, i64, i32, i32, i32, i32, ptr, i8, i64, ptr, ptr }
%struct.H5C_cache_entry_t = type { ptr, i64, i64, ptr, i8, ptr, i8, i8, i8, i8, i32, i8, i8, i8, i8, i8, i32, ptr, i32, i32, i32, i32, i32, i8, i8, ptr, ptr, ptr, ptr, ptr, ptr, i8, i32, i8, i64, ptr, i64, i64, i32, i8, i32, i32, i8, ptr, ptr, ptr }
%struct.H5HF_free_section_t = type { %struct.H5FS_section_info_t, %union.anon.0 }
%struct.H5FS_section_info_t = type { i64, i64, i32, i32 }
%union.anon.0 = type { %struct.anon.2 }
%struct.anon.2 = type { %union.anon.3, i32, i32, i32, ptr, i32, i64, i32, i32, i32, ptr, i32, ptr }
%union.anon.3 = type { ptr }
%struct.anon.1 = type { ptr, i32, i32, i32, i8 }

@H5HF_init_g = external global i8, align 1
@H5_libterm_g = external global i8, align 1
@.str.4 = private unnamed_addr constant [104 x i8] c"generated/home/dtcxzyw/WorkSpace/Projects/compilers/llvm-opt-benchmark/bench/hdf5/hdf5/src/H5HFiblock.c\00", align 1
@H5E_HEAP_g = external global i64, align 8
@H5E_CANTALLOC_g = external global i64, align 8
@H5E_CANTDEC_g = external global i64, align 8
@H5E_CANTGET_g = external global i64, align 8
@__func__.H5HF__man_iblock_alloc_row = private unnamed_addr constant [27 x i8] c"H5HF__man_iblock_alloc_row\00", align 1
@H5E_CANTREVIVE_g = external global i64, align 8
@.str.29 = private unnamed_addr constant [30 x i8] c"can't revive indirect section\00", align 1
@.str.30 = private unnamed_addr constant [46 x i8] c"can't retrieve indirect block for row section\00", align 1
@H5E_CANTINC_g = external global i64, align 8
@.str.31 = private unnamed_addr constant [57 x i8] c"can't increment reference count on shared indirect block\00", align 1
@H5E_CANTSHRINK_g = external global i64, align 8
@.str.32 = private unnamed_addr constant [30 x i8] c"can't reduce row section node\00", align 1
@.str.33 = private unnamed_addr constant [41 x i8] c"can't allocate fractal heap direct block\00", align 1
@.str.34 = private unnamed_addr constant [57 x i8] c"can't decrement reference count on shared indirect block\00", align 1

; Function Attrs: nounwind uwtable
define i32 @H5HF__man_iblock_alloc_row(ptr noundef %0, ptr noundef %1) #0 {
  %3 = alloca ptr, align 8
  %4 = alloca ptr, align 8
  %5 = alloca ptr, align 8
  %6 = alloca ptr, align 8
  %7 = alloca i32, align 4
  %8 = alloca i8, align 1
  %9 = alloca i32, align 4
  %10 = alloca i8, align 1
  store ptr %0, ptr %3, align 8, !tbaa !52
  store ptr %1, ptr %4, align 8, !tbaa !106
  call void @llvm.lifetime.start.p0(i64 8, ptr %5) #7
  store ptr null, ptr %5, align 8, !tbaa !3
  call void @llvm.lifetime.start.p0(i64 8, ptr %6) #7
  %11 = load ptr, ptr %4, align 8, !tbaa !106
  %12 = load ptr, ptr %11, align 8, !tbaa !108
  store ptr %12, ptr %6, align 8, !tbaa !108
  call void @llvm.lifetime.start.p0(i64 4, ptr %7) #7
  call void @llvm.lifetime.start.p0(i64 1, ptr %8) #7
  store i8 0, ptr %8, align 1, !tbaa !10
  call void @llvm.lifetime.start.p0(i64 4, ptr %9) #7
  store i32 0, ptr %9, align 4, !tbaa !8
  call void @llvm.lifetime.start.p0(i64 1, ptr %10) #7
  store i8 0, ptr %10, align 1, !tbaa !10
  %13 = load i8, ptr @H5HF_init_g, align 1, !tbaa !10, !range !12, !noundef !13
  %14 = trunc i8 %13 to i1
  br i1 %14, label %19, label %15

15:                                               ; preds = %2
  %16 = load i8, ptr @H5_libterm_g, align 1, !tbaa !10, !range !12, !noundef !13
  %17 = trunc i8 %16 to i1
  %18 = xor i1 %17, true
  br label %19

19:                                               ; preds = %15, %2
  %20 = phi i1 [ true, %2 ], [ %18, %15 ]
  %21 = xor i1 %20, true
  %22 = xor i1 %21, true
  %23 = zext i1 %22 to i32
  %24 = sext i32 %23 to i64
  %25 = call i64 @llvm.expect.i64(i64 %24, i64 1)
  %26 = icmp ne i64 %25, 0
  br i1 %26, label %27, label %202

27:                                               ; preds = %19
  %28 = load ptr, ptr %6, align 8, !tbaa !108
  %29 = getelementptr inbounds nuw %struct.H5HF_free_section_t, ptr %28, i32 0, i32 0
  %30 = getelementptr inbounds nuw %struct.H5FS_section_info_t, ptr %29, i32 0, i32 3
  %31 = load i32, ptr %30, align 4, !tbaa !110
  %32 = icmp eq i32 %31, 1
  br i1 %32, label %55, label %33

33:                                               ; preds = %27
  %34 = load ptr, ptr %6, align 8, !tbaa !108
  %35 = getelementptr inbounds nuw %struct.H5HF_free_section_t, ptr %34, i32 0, i32 1
  %36 = getelementptr inbounds nuw %struct.anon.1, ptr %35, i32 0, i32 0
  %37 = load ptr, ptr %36, align 8, !tbaa !113
  %38 = getelementptr inbounds nuw %struct.H5HF_free_section_t, ptr %37, i32 0, i32 0
  %39 = getelementptr inbounds nuw %struct.H5FS_section_info_t, ptr %38, i32 0, i32 3
  %40 = load i32, ptr %39, align 4, !tbaa !110
  %41 = icmp eq i32 1, %40
  br i1 %41, label %55, label %42

42:                                               ; preds = %33
  %43 = load ptr, ptr %6, align 8, !tbaa !108
  %44 = getelementptr inbounds nuw %struct.H5HF_free_section_t, ptr %43, i32 0, i32 1
  %45 = getelementptr inbounds nuw %struct.anon.1, ptr %44, i32 0, i32 0
  %46 = load ptr, ptr %45, align 8, !tbaa !113
  %47 = getelementptr inbounds nuw %struct.H5HF_free_section_t, ptr %46, i32 0, i32 1
  %48 = getelementptr inbounds nuw %struct.anon.2, ptr %47, i32 0, i32 0
  %49 = load ptr, ptr %48, align 8, !tbaa !113
  %50 = getelementptr inbounds nuw %struct.H5HF_indirect_t, ptr %49, i32 0, i32 13
  %51 = load i8, ptr %50, align 8, !tbaa !49, !range !12, !noundef !13
  %52 = trunc i8 %51 to i1
  %53 = zext i1 %52 to i32
  %54 = icmp eq i32 1, %53
  br i1 %54, label %55, label %80

55:                                               ; preds = %42, %33, %27
  %56 = load ptr, ptr %3, align 8, !tbaa !52
  %57 = load ptr, ptr %6, align 8, !tbaa !108
  %58 = call i32 @H5HF__sect_row_revive(ptr noundef %56, ptr noundef %57)
  %59 = icmp slt i32 %58, 0
  br i1 %59, label %60, label %79

60:                                               ; preds = %55
  br label %61

61:                                               ; preds = %60
  br label %62

62:                                               ; preds = %61
  br label %63

63:                                               ; preds = %62
  %64 = load i64, ptr @H5E_HEAP_g, align 8, !tbaa !28
  %65 = load i64, ptr @H5E_CANTREVIVE_g, align 8, !tbaa !28
  %66 = call i32 (ptr, ptr, i32, i64, i64, ptr, ...) @H5E_printf_stack(ptr noundef @.str.4, ptr noundef @__func__.H5HF__man_iblock_alloc_row, i32 noundef 892, i64 noundef %64, i64 noundef %65, ptr noundef @.str.29)
  br label %67

67:                                               ; preds = %63
  br label %68

68:                                               ; preds = %67
  store i8 1, ptr %10, align 1, !tbaa !10
  %69 = load i8, ptr %10, align 1, !tbaa !10, !range !12, !noundef !13
  %70 = trunc i8 %69 to i1
  %71 = zext i1 %70 to i8
  store i8 %71, ptr %10, align 1, !tbaa !10
  br label %72

72:                                               ; preds = %68
  br label %73

73:                                               ; preds = %72
  br label %74

74:                                               ; preds = %73
  store i32 -1, ptr %9, align 4, !tbaa !8
  br label %177

75:                                               ; No predecessors!
  br label %76

76:                                               ; preds = %75
  br label %77

77:                                               ; preds = %76
  br label %78

78:                                               ; preds = %77
  br label %79

79:                                               ; preds = %78, %55
  br label %80

80:                                               ; preds = %79, %42
  %81 = load ptr, ptr %6, align 8, !tbaa !108
  %82 = call ptr @H5HF__sect_row_get_iblock(ptr noundef %81)
  store ptr %82, ptr %5, align 8, !tbaa !3
  %83 = icmp eq ptr null, %82
  br i1 %83, label %84, label %103

84:                                               ; preds = %80
  br label %85

85:                                               ; preds = %84
  br label %86

86:                                               ; preds = %85
  br label %87

87:                                               ; preds = %86
  %88 = load i64, ptr @H5E_HEAP_g, align 8, !tbaa !28
  %89 = load i64, ptr @H5E_CANTGET_g, align 8, !tbaa !28
  %90 = call i32 (ptr, ptr, i32, i64, i64, ptr, ...) @H5E_printf_stack(ptr noundef @.str.4, ptr noundef @__func__.H5HF__man_iblock_alloc_row, i32 noundef 896, i64 noundef %88, i64 noundef %89, ptr noundef @.str.30)
  br label %91

91:                                               ; preds = %87
  br label %92

92:                                               ; preds = %91
  store i8 1, ptr %10, align 1, !tbaa !10
  %93 = load i8, ptr %10, align 1, !tbaa !10, !range !12, !noundef !13
  %94 = trunc i8 %93 to i1
  %95 = zext i1 %94 to i8
  store i8 %95, ptr %10, align 1, !tbaa !10
  br label %96

96:                                               ; preds = %92
  br label %97

97:                                               ; preds = %96
  br label %98

98:                                               ; preds = %97
  store i32 -1, ptr %9, align 4, !tbaa !8
  br label %177

99:                                               ; No predecessors!
  br label %100

100:                                              ; preds = %99
  br label %101

101:                                              ; preds = %100
  br label %102

102:                                              ; preds = %101
  br label %103

103:                                              ; preds = %102, %80
  %104 = load ptr, ptr %5, align 8, !tbaa !3
  %105 = call i32 @H5HF__iblock_incr(ptr noundef %104)
  %106 = icmp slt i32 %105, 0
  br i1 %106, label %107, label %126

107:                                              ; preds = %103
  br label %108

108:                                              ; preds = %107
  br label %109

109:                                              ; preds = %108
  br label %110

110:                                              ; preds = %109
  %111 = load i64, ptr @H5E_HEAP_g, align 8, !tbaa !28
  %112 = load i64, ptr @H5E_CANTINC_g, align 8, !tbaa !28
  %113 = call i32 (ptr, ptr, i32, i64, i64, ptr, ...) @H5E_printf_stack(ptr noundef @.str.4, ptr noundef @__func__.H5HF__man_iblock_alloc_row, i32 noundef 900, i64 noundef %111, i64 noundef %112, ptr noundef @.str.31)
  br label %114

114:                                              ; preds = %110
  br label %115

115:                                              ; preds = %114
  store i8 1, ptr %10, align 1, !tbaa !10
  %116 = load i8, ptr %10, align 1, !tbaa !10, !range !12, !noundef !13
  %117 = trunc i8 %116 to i1
  %118 = zext i1 %117 to i8
  store i8 %118, ptr %10, align 1, !tbaa !10
  br label %119

119:                                              ; preds = %115
  br label %120

120:                                              ; preds = %119
  br label %121

121:                                              ; preds = %120
  store i32 -1, ptr %9, align 4, !tbaa !8
  br label %177

122:                                              ; No predecessors!
  br label %123

123:                                              ; preds = %122
  br label %124

124:                                              ; preds = %123
  br label %125

125:                                              ; preds = %124
  br label %126

126:                                              ; preds = %125, %103
  store i8 1, ptr %8, align 1, !tbaa !10
  %127 = load ptr, ptr %3, align 8, !tbaa !52
  %128 = load ptr, ptr %6, align 8, !tbaa !108
  %129 = call i32 @H5HF__sect_row_reduce(ptr noundef %127, ptr noundef %128, ptr noundef %7)
  %130 = icmp slt i32 %129, 0
  br i1 %130, label %131, label %150

131:                                              ; preds = %126
  br label %132

132:                                              ; preds = %131
  br label %133

133:                                              ; preds = %132
  br label %134

134:                                              ; preds = %133
  %135 = load i64, ptr @H5E_HEAP_g, align 8, !tbaa !28
  %136 = load i64, ptr @H5E_CANTSHRINK_g, align 8, !tbaa !28
  %137 = call i32 (ptr, ptr, i32, i64, i64, ptr, ...) @H5E_printf_stack(ptr noundef @.str.4, ptr noundef @__func__.H5HF__man_iblock_alloc_row, i32 noundef 905, i64 noundef %135, i64 noundef %136, ptr noundef @.str.32)
  br label %138

138:                                              ; preds = %134
  br label %139

139:                                              ; preds = %138
  store i8 1, ptr %10, align 1, !tbaa !10
  %140 = load i8, ptr %10, align 1, !tbaa !10, !range !12, !noundef !13
  %141 = trunc i8 %140 to i1
  %142 = zext i1 %141 to i8
  store i8 %142, ptr %10, align 1, !tbaa !10
  br label %143

143:                                              ; preds = %139
  br label %144

144:                                              ; preds = %143
  br label %145

145:                                              ; preds = %144
  store i32 -1, ptr %9, align 4, !tbaa !8
  br label %177

146:                                              ; No predecessors!
  br label %147

147:                                              ; preds = %146
  br label %148

148:                                              ; preds = %147
  br label %149

149:                                              ; preds = %148
  br label %150

150:                                              ; preds = %149, %126
  %151 = load ptr, ptr %3, align 8, !tbaa !52
  %152 = load ptr, ptr %5, align 8, !tbaa !3
  %153 = load i32, ptr %7, align 4, !tbaa !8
  %154 = load ptr, ptr %4, align 8, !tbaa !106
  %155 = call i32 @H5HF__man_dblock_create(ptr noundef %151, ptr noundef %152, i32 noundef %153, ptr noundef null, ptr noundef %154)
  %156 = icmp slt i32 %155, 0
  br i1 %156, label %157, label %176

157:                                              ; preds = %150
  br label %158

158:                                              ; preds = %157
  br label %159

159:                                              ; preds = %158
  br label %160

160:                                              ; preds = %159
  %161 = load i64, ptr @H5E_HEAP_g, align 8, !tbaa !28
  %162 = load i64, ptr @H5E_CANTALLOC_g, align 8, !tbaa !28
  %163 = call i32 (ptr, ptr, i32, i64, i64, ptr, ...) @H5E_printf_stack(ptr noundef @.str.4, ptr noundef @__func__.H5HF__man_iblock_alloc_row, i32 noundef 909, i64 noundef %161, i64 noundef %162, ptr noundef @.str.33)
  br label %164

164:                                              ; preds = %160
  br label %165

165:                                              ; preds = %164
  store i8 1, ptr %10, align 1, !tbaa !10
  %166 = load i8, ptr %10, align 1, !tbaa !10, !range !12, !noundef !13
  %167 = trunc i8 %166 to i1
  %168 = zext i1 %167 to i8
  store i8 %168, ptr %10, align 1, !tbaa !10
  br label %169

169:                                              ; preds = %165
  br label %170

170:                                              ; preds = %169
  br label %171

171:                                              ; preds = %170
  store i32 -1, ptr %9, align 4, !tbaa !8
  br label %177

172:                                              ; No predecessors!
  br label %173

173:                                              ; preds = %172
  br label %174

174:                                              ; preds = %173
  br label %175

175:                                              ; preds = %174
  br label %176

176:                                              ; preds = %175, %150
  br label %177

177:                                              ; preds = %176, %171, %145, %121, %98, %74
  %178 = load i8, ptr %8, align 1, !tbaa !10, !range !12, !noundef !13
  %179 = trunc i8 %178 to i1
  br i1 %179, label %180, label %201

180:                                              ; preds = %177
  %181 = load ptr, ptr %5, align 8, !tbaa !3
  %182 = call i32 @H5HF__iblock_decr(ptr noundef %181)
  %183 = icmp slt i32 %182, 0
  br i1 %183, label %184, label %200

184:                                              ; preds = %180
  br label %185

185:                                              ; preds = %184
  br label %186

186:                                              ; preds = %185
  br label %187

187:                                              ; preds = %186
  %188 = load i64, ptr @H5E_HEAP_g, align 8, !tbaa !28
  %189 = load i64, ptr @H5E_CANTDEC_g, align 8, !tbaa !28
  %190 = call i32 (ptr, ptr, i32, i64, i64, ptr, ...) @H5E_printf_stack(ptr noundef @.str.4, ptr noundef @__func__.H5HF__man_iblock_alloc_row, i32 noundef 916, i64 noundef %188, i64 noundef %189, ptr noundef @.str.34)
  br label %191

191:                                              ; preds = %187
  br label %192

192:                                              ; preds = %191
  store i8 1, ptr %10, align 1, !tbaa !10
  %193 = load i8, ptr %10, align 1, !tbaa !10, !range !12, !noundef !13
  %194 = trunc i8 %193 to i1
  %195 = zext i1 %194 to i8
  store i8 %195, ptr %10, align 1, !tbaa !10
  br label %196

196:                                              ; preds = %192
  br label %197

197:                                              ; preds = %196
  store i32 -1, ptr %9, align 4, !tbaa !8
  br label %198

198:                                              ; preds = %197
  br label %199

199:                                              ; preds = %198
  br label %200

200:                                              ; preds = %199, %180
  br label %201

201:                                              ; preds = %200, %177
  br label %202

202:                                              ; preds = %201, %19
  %203 = load i32, ptr %9, align 4, !tbaa !8
  call void @llvm.lifetime.end.p0(i64 1, ptr %10) #7
  call void @llvm.lifetime.end.p0(i64 4, ptr %9) #7
  call void @llvm.lifetime.end.p0(i64 1, ptr %8) #7
  call void @llvm.lifetime.end.p0(i64 4, ptr %7) #7
  call void @llvm.lifetime.end.p0(i64 8, ptr %6) #7
  call void @llvm.lifetime.end.p0(i64 8, ptr %5) #7
  ret i32 %203
}