; Function Attrs: nounwind uwtable
define range(i32 -1, 1) i32 @H5HF__man_iblock_alloc_row(ptr noundef %0, ptr noundef %1) local_unnamed_addr #0 {
  %3 = alloca i32, align 4
  %4 = load ptr, ptr %1, align 8, !tbaa !101
  call void @llvm.lifetime.start.p0(i64 4, ptr nonnull %3) #6
  %5 = load i8, ptr @H5HF_init_g, align 1, !tbaa !3, !range !7, !noundef !8
  %6 = trunc nuw i8 %5 to i1
  %7 = load i8, ptr @H5_libterm_g, align 1, !range !7
  %8 = trunc nuw i8 %7 to i1
  %9 = xor i1 %8, true
  %10 = select i1 %6, i1 true, i1 %9
  br i1 %10, label %11, label %70, !prof !9

11:                                               ; preds = %2
  %12 = getelementptr inbounds nuw i8, ptr %4, i64 20
  %13 = load i32, ptr %12, align 4, !tbaa !103
  %14 = icmp eq i32 %13, 1
  br i1 %14, label %27, label %15

15:                                               ; preds = %11
  %16 = getelementptr inbounds nuw i8, ptr %4, i64 24
  %17 = load ptr, ptr %16, align 8, !tbaa !106
  %18 = getelementptr inbounds nuw i8, ptr %17, i64 20
  %19 = load i32, ptr %18, align 4, !tbaa !103
  %20 = icmp eq i32 %19, 1
  br i1 %20, label %27, label %21

21:                                               ; preds = %15
  %22 = getelementptr inbounds nuw i8, ptr %17, i64 24
  %23 = load ptr, ptr %22, align 8, !tbaa !106
  %24 = getelementptr inbounds nuw i8, ptr %23, i64 328
  %25 = load i8, ptr %24, align 8, !tbaa !49, !range !7, !noundef !8
  %26 = trunc nuw i8 %25 to i1
  br i1 %26, label %27, label %34

27:                                               ; preds = %21, %15, %11
  %28 = tail call i32 @H5HF__sect_row_revive(ptr noundef %0, ptr noundef nonnull %4) #6
  %29 = icmp slt i32 %28, 0
  br i1 %29, label %30, label %34

30:                                               ; preds = %27
  %31 = load i64, ptr @H5E_HEAP_g, align 8, !tbaa !48
  %32 = load i64, ptr @H5E_CANTREVIVE_g, align 8, !tbaa !48
  %33 = tail call i32 (ptr, ptr, i32, i64, i64, ptr, ...) @H5E_printf_stack(ptr noundef nonnull @.str.4, ptr noundef nonnull @__func__.H5HF__man_iblock_alloc_row, i32 noundef 892, i64 noundef %31, i64 noundef %32, ptr noundef nonnull @.str.29) #6
  br label %70

34:                                               ; preds = %27, %21
  %35 = tail call ptr @H5HF__sect_row_get_iblock(ptr noundef nonnull %4) #6
  %36 = icmp eq ptr %35, null
  br i1 %36, label %37, label %41

37:                                               ; preds = %34
  %38 = load i64, ptr @H5E_HEAP_g, align 8, !tbaa !48
  %39 = load i64, ptr @H5E_CANTGET_g, align 8, !tbaa !48
  %40 = tail call i32 (ptr, ptr, i32, i64, i64, ptr, ...) @H5E_printf_stack(ptr noundef nonnull @.str.4, ptr noundef nonnull @__func__.H5HF__man_iblock_alloc_row, i32 noundef 896, i64 noundef %38, i64 noundef %39, ptr noundef nonnull @.str.30) #6
  br label %70

41:                                               ; preds = %34
  %42 = tail call i32 @H5HF__iblock_incr(ptr noundef nonnull %35)
  %43 = icmp slt i32 %42, 0
  br i1 %43, label %44, label %48

44:                                               ; preds = %41
  %45 = load i64, ptr @H5E_HEAP_g, align 8, !tbaa !48
  %46 = load i64, ptr @H5E_CANTINC_g, align 8, !tbaa !48
  %47 = tail call i32 (ptr, ptr, i32, i64, i64, ptr, ...) @H5E_printf_stack(ptr noundef nonnull @.str.4, ptr noundef nonnull @__func__.H5HF__man_iblock_alloc_row, i32 noundef 900, i64 noundef %45, i64 noundef %46, ptr noundef nonnull @.str.31) #6
  br label %70

48:                                               ; preds = %41
  %49 = call i32 @H5HF__sect_row_reduce(ptr noundef %0, ptr noundef nonnull %4, ptr noundef nonnull %3) #6
  %50 = icmp slt i32 %49, 0
  br i1 %50, label %51, label %55

51:                                               ; preds = %48
  %52 = load i64, ptr @H5E_HEAP_g, align 8, !tbaa !48
  %53 = load i64, ptr @H5E_CANTSHRINK_g, align 8, !tbaa !48
  %54 = call i32 (ptr, ptr, i32, i64, i64, ptr, ...) @H5E_printf_stack(ptr noundef nonnull @.str.4, ptr noundef nonnull @__func__.H5HF__man_iblock_alloc_row, i32 noundef 905, i64 noundef %52, i64 noundef %53, ptr noundef nonnull @.str.32) #6
  br label %63

55:                                               ; preds = %48
  %56 = load i32, ptr %3, align 4, !tbaa !54
  %57 = call i32 @H5HF__man_dblock_create(ptr noundef %0, ptr noundef nonnull %35, i32 noundef %56, ptr noundef null, ptr noundef nonnull %1) #6
  %58 = icmp slt i32 %57, 0
  br i1 %58, label %59, label %63

59:                                               ; preds = %55
  %60 = load i64, ptr @H5E_HEAP_g, align 8, !tbaa !48
  %61 = load i64, ptr @H5E_CANTALLOC_g, align 8, !tbaa !48
  %62 = call i32 (ptr, ptr, i32, i64, i64, ptr, ...) @H5E_printf_stack(ptr noundef nonnull @.str.4, ptr noundef nonnull @__func__.H5HF__man_iblock_alloc_row, i32 noundef 909, i64 noundef %60, i64 noundef %61, ptr noundef nonnull @.str.33) #6
  br label %63

63:                                               ; preds = %51, %59, %55
  %.1.ph = phi i32 [ 0, %55 ], [ -1, %59 ], [ -1, %51 ]
  %64 = call i32 @H5HF__iblock_decr(ptr noundef nonnull %35)
  %65 = icmp slt i32 %64, 0
  br i1 %65, label %66, label %70

66:                                               ; preds = %63
  %67 = load i64, ptr @H5E_HEAP_g, align 8, !tbaa !48
  %68 = load i64, ptr @H5E_CANTDEC_g, align 8, !tbaa !48
  %69 = call i32 (ptr, ptr, i32, i64, i64, ptr, ...) @H5E_printf_stack(ptr noundef nonnull @.str.4, ptr noundef nonnull @__func__.H5HF__man_iblock_alloc_row, i32 noundef 916, i64 noundef %67, i64 noundef %68, ptr noundef nonnull @.str.34) #6
  br label %70

70:                                               ; preds = %30, %37, %44, %66, %63, %2
  %.0 = phi i32 [ -1, %66 ], [ %.1.ph, %63 ], [ 0, %2 ], [ -1, %30 ], [ -1, %37 ], [ -1, %44 ]
  call void @llvm.lifetime.end.p0(i64 4, ptr nonnull %3) #6
  ret i32 %.0
}